target datalayout = "e-m:e-p270:32:32-p271:32:32-p272:64:64-i64:64-i128:128-f80:128-n8:16:32:64-S128"
target triple = "x86_64-unknown-linux-gnu"

%"class.icu_75::TailoredSet" = type <{ ptr, ptr, ptr, %"class.icu_75::UnicodeString", ptr, i32, [4 x i8] }>
%"class.icu_75::UnicodeString" = type { %"class.icu_75::Replaceable", %"union.icu_75::UnicodeString::StackBufferOrFields" }
%"class.icu_75::Replaceable" = type { %"class.icu_75::UObject" }
%"class.icu_75::UObject" = type { ptr }
%"union.icu_75::UnicodeString::StackBufferOrFields" = type { %struct.anon.0, [32 x i8] }
%struct.anon.0 = type { i16, i32, i32, ptr }
%"struct.icu_75::CollationData" = type <{ ptr, ptr, ptr, ptr, ptr, ptr, ptr, i32, i32, i32, i32, ptr, ptr, ptr, i32, i32, ptr, ptr, i32, [4 x i8], ptr, i32, [4 x i8] }>

; Function Attrs: mustprogress nounwind uwtable
define internal noundef signext i8 @_ZL9U_FAILURE10UErrorCode(i32 noundef %code) #1 {
entry:
  %code.addr = alloca i32, align 4
  store i32 %code, ptr %code.addr, align 4
  %0 = load i32, ptr %code.addr, align 4
  %cmp = icmp sgt i32 %0, 0
  %conv = zext i1 %cmp to i8
  ret i8 %conv
}

; Function Attrs: mustprogress uwtable
define void @_ZN6icu_7511TailoredSet7forDataEPKNS_13CollationDataER10UErrorCode(ptr noundef nonnull align 8 dereferenceable(100) %this, ptr noundef %d, ptr noundef nonnull align 4 dereferenceable(4) %ec) #0 align 2 {
entry:
  %this.addr = alloca ptr, align 8
  %d.addr = alloca ptr, align 8
  %ec.addr = alloca ptr, align 8
  store ptr %this, ptr %this.addr, align 8
  store ptr %d, ptr %d.addr, align 8
  store ptr %ec, ptr %ec.addr, align 8
  %this1 = load ptr, ptr %this.addr, align 8
  %0 = load ptr, ptr %ec.addr, align 8
  %1 = load i32, ptr %0, align 4
  %call = call noundef signext i8 @_ZL9U_FAILURE10UErrorCode(i32 noundef %1)
  %tobool = icmp ne i8 %call, 0
  br i1 %tobool, label %if.then, label %if.end

if.then:                                          ; preds = %entry
  br label %return

if.end:                                           ; preds = %entry
  %2 = load ptr, ptr %ec.addr, align 8
  %3 = load i32, ptr %2, align 4
  %errorCode = getelementptr inbounds %"class.icu_75::TailoredSet", ptr %this1, i32 0, i32 5
  store i32 %3, ptr %errorCode, align 8
  %4 = load ptr, ptr %d.addr, align 8
  %data = getelementptr inbounds %"class.icu_75::TailoredSet", ptr %this1, i32 0, i32 0
  store ptr %4, ptr %data, align 8
  %5 = load ptr, ptr %d.addr, align 8
  %base = getelementptr inbounds %"struct.icu_75::CollationData", ptr %5, i32 0, i32 4
  %6 = load ptr, ptr %base, align 8
  %baseData = getelementptr inbounds %"class.icu_75::TailoredSet", ptr %this1, i32 0, i32 1
  store ptr %6, ptr %baseData, align 8
  %data2 = getelementptr inbounds %"class.icu_75::TailoredSet", ptr %this1, i32 0, i32 0
  %7 = load ptr, ptr %data2, align 8
  %trie = getelementptr inbounds %"struct.icu_75::CollationData", ptr %7, i32 0, i32 0
  %8 = load ptr, ptr %trie, align 8
  call void @utrie2_enum_75(ptr noundef %8, ptr noundef null, ptr noundef @_ZN6icu_75L17enumTailoredRangeEPKviij, ptr noundef %this1)
  %errorCode3 = getelementptr inbounds %"class.icu_75::TailoredSet", ptr %this1, i32 0, i32 5
  %9 = load i32, ptr %errorCode3, align 8
  %10 = load ptr, ptr %ec.addr, align 8
  store i32 %9, ptr %10, align 4
  br label %return

return:                                           ; preds = %if.end, %if.then
  ret void
}