; Function Attrs: mustprogress uwtable
define void @_ZN6icu_7511TailoredSet7forDataEPKNS_13CollationDataER10UErrorCode(ptr noundef nonnull align 8 dereferenceable(100) %this, ptr noundef %d, ptr nocapture noundef nonnull align 4 dereferenceable(4) %ec) local_unnamed_addr #0 align 2 {
entry:
  %0 = load i32, ptr %ec, align 4
  %cmp.i = icmp slt i32 %0, 1
  br i1 %cmp.i, label %if.end, label %return

if.end:                                           ; preds = %entry
  %errorCode = getelementptr inbounds i8, ptr %this, i64 96
  store i32 %0, ptr %errorCode, align 8
  store ptr %d, ptr %this, align 8
  %base = getelementptr inbounds i8, ptr %d, i64 32
  %1 = load ptr, ptr %base, align 8
  %baseData = getelementptr inbounds i8, ptr %this, i64 8
  store ptr %1, ptr %baseData, align 8
  %2 = load ptr, ptr %d, align 8
  tail call void @utrie2_enum_75(ptr noundef %2, ptr noundef null, ptr noundef nonnull @_ZN6icu_75L17enumTailoredRangeEPKviij, ptr noundef nonnull %this)
  %3 = load i32, ptr %errorCode, align 8
  store i32 %3, ptr %ec, align 4
  br label %return

return:                                           ; preds = %entry, %if.end
  ret void
}